target datalayout = "e-m:e-p270:32:32-p271:32:32-p272:64:64-i64:64-i128:128-f80:128-n8:16:32:64-S128"
target triple = "x86_64-pc-linux-gnu"

%class.CompactHashtable = type { %class.SimpleCompactHashtable }
%class.SimpleCompactHashtable = type { ptr, i32, i32, ptr, ptr }
%class.Handle = type { ptr }

@_ZL13_shared_table = internal global %class.CompactHashtable zeroinitializer, align 8
@_alt_hash = hidden global i8 0, align 1
@_ZL14_alt_hash_seed = internal global i64 0, align 8

; Function Attrs: mustprogress nounwind uwtable
define internal noundef i32 @_ZL11hash_stringPKtib(ptr noundef %0, i32 noundef %1, i1 noundef zeroext %2) #1 {
  %4 = alloca ptr, align 8
  %5 = alloca i32, align 4
  %6 = alloca i8, align 1
  store ptr %0, ptr %4, align 8
  store i32 %1, ptr %5, align 4
  %7 = zext i1 %2 to i8
  store i8 %7, ptr %6, align 1
  %8 = load i8, ptr %6, align 1
  %9 = trunc i8 %8 to i1
  br i1 %9, label %10, label %15

10:                                               ; preds = %3
  %11 = load i64, ptr @_ZL14_alt_hash_seed, align 8
  %12 = load ptr, ptr %4, align 8
  %13 = load i32, ptr %5, align 4
  %14 = call noundef i32 @_ZN10AltHashing14halfsiphash_32EmPKti(i64 noundef %11, ptr noundef %12, i32 noundef %13)
  br label %19

15:                                               ; preds = %3
  %16 = load ptr, ptr %4, align 8
  %17 = load i32, ptr %5, align 4
  %18 = call noundef i32 @_ZN16java_lang_String9hash_codeEPKti(ptr noundef %16, i32 noundef %17)
  br label %19

19:                                               ; preds = %15, %10
  %20 = phi i32 [ %14, %10 ], [ %18, %15 ]
  ret i32 %20
}

; Function Attrs: mustprogress nounwind uwtable
define hidden noundef ptr @_ZN11StringTable13lookup_sharedEPKtij(ptr noundef %0, i32 noundef %1, i32 noundef %2) #1 align 2 {
  %4 = alloca ptr, align 8
  %5 = alloca i32, align 4
  %6 = alloca i32, align 4
  store ptr %0, ptr %4, align 8
  store i32 %1, ptr %5, align 4
  store i32 %2, ptr %6, align 4
  %7 = load ptr, ptr %4, align 8
  %8 = load i32, ptr %6, align 4
  %9 = load i32, ptr %5, align 4
  %10 = call noundef ptr @_ZNK16CompactHashtableIPKtP7oopDescXadL_ZN11StringTable34read_string_from_compact_hashtableEPhjEEXadL_ZN16java_lang_String6equalsES3_S1_iEEE6lookupES1_ji(ptr noundef nonnull align 8 dereferenceable(32) @_ZL13_shared_table, ptr noundef %7, i32 noundef %8, i32 noundef %9)
  ret ptr %10
}

; Function Attrs: mustprogress nounwind uwtable
define linkonce_odr hidden noundef i32 @_ZN16java_lang_String9hash_codeEPKti(ptr noundef %0, i32 noundef %1) #1 comdat align 2 {
  %3 = alloca ptr, align 8
  %4 = alloca i32, align 4
  %5 = alloca i32, align 4
  store ptr %0, ptr %3, align 8
  store i32 %1, ptr %4, align 4
  store i32 0, ptr %5, align 4
  br label %6

6:                                                ; preds = %10, %2
  %7 = load i32, ptr %4, align 4
  %8 = add nsw i32 %7, -1
  store i32 %8, ptr %4, align 4
  %9 = icmp sgt i32 %7, 0
  br i1 %9, label %10, label %19

10:                                               ; preds = %6
  %11 = load i32, ptr %5, align 4
  %12 = mul i32 31, %11
  %13 = load ptr, ptr %3, align 8
  %14 = load i16, ptr %13, align 2
  %15 = zext i16 %14 to i32
  %16 = add i32 %12, %15
  store i32 %16, ptr %5, align 4
  %17 = load ptr, ptr %3, align 8
  %18 = getelementptr inbounds i16, ptr %17, i32 1
  store ptr %18, ptr %3, align 8
  br label %6, !llvm.loop !8

19:                                               ; preds = %6
  %20 = load i32, ptr %5, align 4
  ret i32 %20
}

; Function Attrs: mustprogress nounwind uwtable
define hidden noundef ptr @_ZN11StringTable6internE6HandlePKtiP10JavaThread(ptr %0, ptr noundef %1, i32 noundef %2, ptr noundef %3) #1 align 2 {
  %5 = alloca ptr, align 8
  %6 = alloca %class.Handle, align 8
  %7 = alloca ptr, align 8
  %8 = alloca i32, align 4
  %9 = alloca ptr, align 8
  %10 = alloca i32, align 4
  %11 = alloca ptr, align 8
  %12 = alloca %class.Handle, align 8
  %13 = getelementptr inbounds %class.Handle, ptr %6, i32 0, i32 0
  store ptr %0, ptr %13, align 8
  store ptr %1, ptr %7, align 8
  store i32 %2, ptr %8, align 4
  store ptr %3, ptr %9, align 8
  %14 = load ptr, ptr %7, align 8
  %15 = load i32, ptr %8, align 4
  %16 = call noundef i32 @_ZN16java_lang_String9hash_codeEPKti(ptr noundef %14, i32 noundef %15)
  store i32 %16, ptr %10, align 4
  %17 = load ptr, ptr %7, align 8
  %18 = load i32, ptr %8, align 4
  %19 = load i32, ptr %10, align 4
  %20 = call noundef ptr @_ZN11StringTable13lookup_sharedEPKtij(ptr noundef %17, i32 noundef %18, i32 noundef %19)
  store ptr %20, ptr %11, align 8
  %21 = load ptr, ptr %11, align 8
  %22 = icmp ne ptr %21, null
  br i1 %22, label %23, label %25

23:                                               ; preds = %4
  %24 = load ptr, ptr %11, align 8
  store ptr %24, ptr %5, align 8
  br label %51

25:                                               ; preds = %4
  %26 = load volatile i8, ptr @_alt_hash, align 1
  %27 = trunc i8 %26 to i1
  br i1 %27, label %28, label %32

28:                                               ; preds = %25
  %29 = load ptr, ptr %7, align 8
  %30 = load i32, ptr %8, align 4
  %31 = call noundef i32 @_ZL11hash_stringPKtib(ptr noundef %29, i32 noundef %30, i1 noundef zeroext true)
  store i32 %31, ptr %10, align 4
  br label %32

32:                                               ; preds = %28, %25
  %33 = load ptr, ptr %7, align 8
  %34 = load i32, ptr %8, align 4
  %35 = load i32, ptr %10, align 4
  %36 = zext i32 %35 to i64
  %37 = call noundef ptr @_ZN11StringTable9do_lookupEPKtim(ptr noundef %33, i32 noundef %34, i64 noundef %36)
  store ptr %37, ptr %11, align 8
  %38 = load ptr, ptr %11, align 8
  %39 = icmp ne ptr %38, null
  br i1 %39, label %40, label %42

40:                                               ; preds = %32
  %41 = load ptr, ptr %11, align 8
  store ptr %41, ptr %5, align 8
  br label %51

42:                                               ; preds = %32
  call void @llvm.memcpy.p0.p0.i64(ptr align 8 %12, ptr align 8 %6, i64 8, i1 false)
  %43 = load ptr, ptr %7, align 8
  %44 = load i32, ptr %8, align 4
  %45 = load i32, ptr %10, align 4
  %46 = zext i32 %45 to i64
  %47 = load ptr, ptr %9, align 8
  %48 = getelementptr inbounds %class.Handle, ptr %12, i32 0, i32 0
  %49 = load ptr, ptr %48, align 8
  %50 = call noundef ptr @_ZN11StringTable9do_internE6HandlePKtimP10JavaThread(ptr %49, ptr noundef %43, i32 noundef %44, i64 noundef %46, ptr noundef %47)
  store ptr %50, ptr %5, align 8
  br label %51

51:                                               ; preds = %42, %40, %23
  %52 = load ptr, ptr %5, align 8
  ret ptr %52
}