; Function Attrs: mustprogress nounwind uwtable
define hidden noundef ptr @_ZN11StringTable6internE6HandlePKtiP10JavaThread(ptr %0, ptr noundef %1, i32 noundef %2, ptr noundef %3) local_unnamed_addr #0 align 2 {
  %5 = icmp sgt i32 %2, 0
  br i1 %5, label %.lr.ph.i, label %_ZN16java_lang_String9hash_codeEPKti.exit

.lr.ph.i:                                         ; preds = %4, %.lr.ph.i
  %.08.i = phi i32 [ %10, %.lr.ph.i ], [ 0, %4 ]
  %.047.i = phi i32 [ %6, %.lr.ph.i ], [ %2, %4 ]
  %.056.i = phi ptr [ %11, %.lr.ph.i ], [ %1, %4 ]
  %6 = add nsw i32 %.047.i, -1
  %7 = mul i32 %.08.i, 31
  %8 = load i16, ptr %.056.i, align 2
  %9 = zext i16 %8 to i32
  %10 = add i32 %7, %9
  %11 = getelementptr inbounds i8, ptr %.056.i, i64 2
  %12 = icmp ugt i32 %.047.i, 1
  br i1 %12, label %.lr.ph.i, label %_ZN16java_lang_String9hash_codeEPKti.exit, !llvm.loop !12

_ZN16java_lang_String9hash_codeEPKti.exit:        ; preds = %.lr.ph.i, %4
  %.0.lcssa.i = phi i32 [ 0, %4 ], [ %10, %.lr.ph.i ]
  %13 = tail call noundef ptr @_ZNK16CompactHashtableIPKtP7oopDescXadL_ZN11StringTable34read_string_from_compact_hashtableEPhjEEXadL_ZN16java_lang_String6equalsES3_S1_iEEE6lookupES1_ji(ptr noundef nonnull align 8 dereferenceable(32) @_ZL13_shared_table, ptr noundef %1, i32 noundef %.0.lcssa.i, i32 noundef %2)
  %.not = icmp eq ptr %13, null
  br i1 %.not, label %14, label %25

14:                                               ; preds = %_ZN16java_lang_String9hash_codeEPKti.exit
  %15 = load volatile i8, ptr @_alt_hash, align 1
  %16 = trunc i8 %15 to i1
  br i1 %16, label %17, label %20

17:                                               ; preds = %14
  %18 = load i64, ptr @_ZL14_alt_hash_seed, align 8
  %19 = tail call noundef i32 @_ZN10AltHashing14halfsiphash_32EmPKti(i64 noundef %18, ptr noundef %1, i32 noundef %2) #17
  br label %20

20:                                               ; preds = %17, %14
  %.019 = phi i32 [ %19, %17 ], [ %.0.lcssa.i, %14 ]
  %21 = zext i32 %.019 to i64
  %22 = tail call noundef ptr @_ZN11StringTable9do_lookupEPKtim(ptr noundef %1, i32 noundef %2, i64 noundef %21)
  %.not22 = icmp eq ptr %22, null
  br i1 %.not22, label %23, label %25

23:                                               ; preds = %20
  %24 = tail call noundef ptr @_ZN11StringTable9do_internE6HandlePKtimP10JavaThread(ptr %0, ptr noundef %1, i32 noundef %2, i64 noundef %21, ptr noundef %3)
  br label %25

25:                                               ; preds = %20, %_ZN16java_lang_String9hash_codeEPKti.exit, %23
  %.0 = phi ptr [ %24, %23 ], [ %13, %_ZN16java_lang_String9hash_codeEPKti.exit ], [ %22, %20 ]
  ret ptr %.0
}